target datalayout = "e-m:e-p270:32:32-p271:32:32-p272:64:64-i64:64-i128:128-f80:128-n8:16:32:64-S128"
target triple = "x86_64-pc-linux-gnu"

%struct.H5AC_proxy_entry_t = type { %struct.H5C_cache_entry_t, i64, ptr, i64, i64, i64 }
%struct.H5C_cache_entry_t = type { ptr, i64, i64, ptr, i8, ptr, i8, i8, i8, i8, i32, i8, i8, i8, i8, i8, i32, ptr, i32, i32, i32, i32, i32, i8, i8, ptr, ptr, ptr, ptr, ptr, ptr, i8, i32, i8, i64, ptr, i64, i64, i32, i8, i32, i32, i8, ptr, ptr, ptr }

@H5AC_init_g = external global i8, align 1
@H5_libterm_g = external global i8, align 1
@.str.1 = private unnamed_addr constant [109 x i8] c"generated/home/dtcxzyw/WorkSpace/Projects/compilers/llvm-opt-benchmark/bench/hdf5/hdf5/src/H5ACproxy_entry.c\00", align 1
@H5E_FUNC_g = external global i64, align 8
@H5E_CANTINIT_g = external global i64, align 8
@.str.2 = private unnamed_addr constant [32 x i8] c"interface initialization failed\00", align 1
@H5E_CACHE_g = external global i64, align 8
@__func__.H5AC_proxy_entry_remove_parent = private unnamed_addr constant [31 x i8] c"H5AC_proxy_entry_remove_parent\00", align 1
@H5E_CANTREMOVE_g = external global i64, align 8
@.str.7 = private unnamed_addr constant [51 x i8] c"unable to remove proxy entry parent from skip list\00", align 1
@H5E_BADVALUE_g = external global i64, align 8
@.str.8 = private unnamed_addr constant [55 x i8] c"removed proxy entry parent not the same as real parent\00", align 1
@H5E_CLOSEERROR_g = external global i64, align 8
@.str.9 = private unnamed_addr constant [35 x i8] c"can't close proxy parent skip list\00", align 1
@H5E_CANTUNDEPEND_g = external global i64, align 8
@.str.10 = private unnamed_addr constant [49 x i8] c"unable to remove flush dependency on proxy entry\00", align 1

; Function Attrs: nounwind uwtable
define i32 @H5AC_proxy_entry_remove_parent(ptr noundef %0, ptr noundef %1) #0 {
  %3 = alloca ptr, align 8
  %4 = alloca ptr, align 8
  %5 = alloca ptr, align 8
  %6 = alloca ptr, align 8
  %7 = alloca i32, align 4
  %8 = alloca i8, align 1
  store ptr %0, ptr %3, align 8, !tbaa !19
  store ptr %1, ptr %4, align 8, !tbaa !3
  call void @llvm.lifetime.start.p0(i64 8, ptr %5) #4
  %9 = load ptr, ptr %4, align 8, !tbaa !3
  store ptr %9, ptr %5, align 8, !tbaa !32
  call void @llvm.lifetime.start.p0(i64 8, ptr %6) #4
  call void @llvm.lifetime.start.p0(i64 4, ptr %7) #4
  store i32 0, ptr %7, align 4, !tbaa !17
  call void @llvm.lifetime.start.p0(i64 1, ptr %8) #4
  store i8 0, ptr %8, align 1, !tbaa !9
  %10 = load i8, ptr @H5AC_init_g, align 1, !tbaa !9, !range !11, !noundef !12
  %11 = trunc i8 %10 to i1
  br i1 %11, label %16, label %12

12:                                               ; preds = %2
  %13 = load i8, ptr @H5_libterm_g, align 1, !tbaa !9, !range !11, !noundef !12
  %14 = trunc i8 %13 to i1
  %15 = xor i1 %14, true
  br label %16

16:                                               ; preds = %12, %2
  %17 = phi i1 [ false, %2 ], [ %15, %12 ]
  %18 = xor i1 %17, true
  %19 = xor i1 %18, true
  %20 = zext i1 %19 to i32
  %21 = sext i32 %20 to i64
  %22 = call i64 @llvm.expect.i64(i64 %21, i64 0)
  %23 = icmp ne i64 %22, 0
  br i1 %23, label %24, label %47

24:                                               ; preds = %16
  store i8 1, ptr @H5AC_init_g, align 1, !tbaa !9
  %25 = call i32 @H5AC__init_package()
  %26 = icmp slt i32 %25, 0
  br i1 %26, label %27, label %46

27:                                               ; preds = %24
  store i8 0, ptr @H5AC_init_g, align 1, !tbaa !9
  br label %28

28:                                               ; preds = %27
  br label %29

29:                                               ; preds = %28
  br label %30

30:                                               ; preds = %29
  %31 = load i64, ptr @H5E_FUNC_g, align 8, !tbaa !13
  %32 = load i64, ptr @H5E_CANTINIT_g, align 8, !tbaa !13
  %33 = call i32 (ptr, ptr, i32, i64, i64, ptr, ...) @H5E_printf_stack(ptr noundef @.str.1, ptr noundef @__func__.H5AC_proxy_entry_remove_parent, i32 noundef 191, i64 noundef %31, i64 noundef %32, ptr noundef @.str.2)
  br label %34

34:                                               ; preds = %30
  br label %35

35:                                               ; preds = %34
  store i8 1, ptr %8, align 1, !tbaa !9
  %36 = load i8, ptr %8, align 1, !tbaa !9, !range !11, !noundef !12
  %37 = trunc i8 %36 to i1
  %38 = zext i1 %37 to i8
  store i8 %38, ptr %8, align 1, !tbaa !9
  br label %39

39:                                               ; preds = %35
  br label %40

40:                                               ; preds = %39
  br label %41

41:                                               ; preds = %40
  store i32 -1, ptr %7, align 4, !tbaa !17
  br label %186

42:                                               ; No predecessors!
  br label %43

43:                                               ; preds = %42
  br label %44

44:                                               ; preds = %43
  br label %45

45:                                               ; preds = %44
  br label %46

46:                                               ; preds = %45, %24
  br label %47

47:                                               ; preds = %46, %16
  %48 = load i8, ptr @H5AC_init_g, align 1, !tbaa !9, !range !11, !noundef !12
  %49 = trunc i8 %48 to i1
  br i1 %49, label %54, label %50

50:                                               ; preds = %47
  %51 = load i8, ptr @H5_libterm_g, align 1, !tbaa !9, !range !11, !noundef !12
  %52 = trunc i8 %51 to i1
  %53 = xor i1 %52, true
  br label %54

54:                                               ; preds = %50, %47
  %55 = phi i1 [ true, %47 ], [ %53, %50 ]
  %56 = xor i1 %55, true
  %57 = xor i1 %56, true
  %58 = zext i1 %57 to i32
  %59 = sext i32 %58 to i64
  %60 = call i64 @llvm.expect.i64(i64 %59, i64 1)
  %61 = icmp ne i64 %60, 0
  br i1 %61, label %62, label %187

62:                                               ; preds = %54
  %63 = load ptr, ptr %3, align 8, !tbaa !19
  %64 = getelementptr inbounds nuw %struct.H5AC_proxy_entry_t, ptr %63, i32 0, i32 2
  %65 = load ptr, ptr %64, align 8, !tbaa !33
  %66 = load ptr, ptr %5, align 8, !tbaa !32
  %67 = getelementptr inbounds nuw %struct.H5C_cache_entry_t, ptr %66, i32 0, i32 1
  %68 = call ptr @H5SL_remove(ptr noundef %65, ptr noundef %67)
  store ptr %68, ptr %6, align 8, !tbaa !32
  %69 = icmp eq ptr null, %68
  br i1 %69, label %70, label %89

70:                                               ; preds = %62
  br label %71

71:                                               ; preds = %70
  br label %72

72:                                               ; preds = %71
  br label %73

73:                                               ; preds = %72
  %74 = load i64, ptr @H5E_CACHE_g, align 8, !tbaa !13
  %75 = load i64, ptr @H5E_CANTREMOVE_g, align 8, !tbaa !13
  %76 = call i32 (ptr, ptr, i32, i64, i64, ptr, ...) @H5E_printf_stack(ptr noundef @.str.1, ptr noundef @__func__.H5AC_proxy_entry_remove_parent, i32 noundef 200, i64 noundef %74, i64 noundef %75, ptr noundef @.str.7)
  br label %77

77:                                               ; preds = %73
  br label %78

78:                                               ; preds = %77
  store i8 1, ptr %8, align 1, !tbaa !9
  %79 = load i8, ptr %8, align 1, !tbaa !9, !range !11, !noundef !12
  %80 = trunc i8 %79 to i1
  %81 = zext i1 %80 to i8
  store i8 %81, ptr %8, align 1, !tbaa !9
  br label %82

82:                                               ; preds = %78
  br label %83

83:                                               ; preds = %82
  br label %84

84:                                               ; preds = %83
  store i32 -1, ptr %7, align 4, !tbaa !17
  br label %186

85:                                               ; No predecessors!
  br label %86

86:                                               ; preds = %85
  br label %87

87:                                               ; preds = %86
  br label %88

88:                                               ; preds = %87
  br label %89

89:                                               ; preds = %88, %62
  %90 = load ptr, ptr %6, align 8, !tbaa !32
  %91 = getelementptr inbounds nuw %struct.H5C_cache_entry_t, ptr %90, i32 0, i32 1
  %92 = load i64, ptr %91, align 8, !tbaa !35
  %93 = icmp ne i64 %92, -1
  br i1 %93, label %94, label %102

94:                                               ; preds = %89
  %95 = load ptr, ptr %6, align 8, !tbaa !32
  %96 = getelementptr inbounds nuw %struct.H5C_cache_entry_t, ptr %95, i32 0, i32 1
  %97 = load i64, ptr %96, align 8, !tbaa !35
  %98 = load ptr, ptr %5, align 8, !tbaa !32
  %99 = getelementptr inbounds nuw %struct.H5C_cache_entry_t, ptr %98, i32 0, i32 1
  %100 = load i64, ptr %99, align 8, !tbaa !35
  %101 = icmp eq i64 %97, %100
  br i1 %101, label %121, label %102

102:                                              ; preds = %94, %89
  br label %103

103:                                              ; preds = %102
  br label %104

104:                                              ; preds = %103
  br label %105

105:                                              ; preds = %104
  %106 = load i64, ptr @H5E_CACHE_g, align 8, !tbaa !13
  %107 = load i64, ptr @H5E_BADVALUE_g, align 8, !tbaa !13
  %108 = call i32 (ptr, ptr, i32, i64, i64, ptr, ...) @H5E_printf_stack(ptr noundef @.str.1, ptr noundef @__func__.H5AC_proxy_entry_remove_parent, i32 noundef 202, i64 noundef %106, i64 noundef %107, ptr noundef @.str.8)
  br label %109

109:                                              ; preds = %105
  br label %110

110:                                              ; preds = %109
  store i8 1, ptr %8, align 1, !tbaa !9
  %111 = load i8, ptr %8, align 1, !tbaa !9, !range !11, !noundef !12
  %112 = trunc i8 %111 to i1
  %113 = zext i1 %112 to i8
  store i8 %113, ptr %8, align 1, !tbaa !9
  br label %114

114:                                              ; preds = %110
  br label %115

115:                                              ; preds = %114
  br label %116

116:                                              ; preds = %115
  store i32 -1, ptr %7, align 4, !tbaa !17
  br label %186

117:                                              ; No predecessors!
  br label %118

118:                                              ; preds = %117
  br label %119

119:                                              ; preds = %118
  br label %120

120:                                              ; preds = %119
  br label %121

121:                                              ; preds = %120, %94
  %122 = load ptr, ptr %3, align 8, !tbaa !19
  %123 = getelementptr inbounds nuw %struct.H5AC_proxy_entry_t, ptr %122, i32 0, i32 2
  %124 = load ptr, ptr %123, align 8, !tbaa !33
  %125 = call i64 @H5SL_count(ptr noundef %124)
  %126 = icmp eq i64 0, %125
  br i1 %126, label %127, label %155

127:                                              ; preds = %121
  %128 = load ptr, ptr %3, align 8, !tbaa !19
  %129 = getelementptr inbounds nuw %struct.H5AC_proxy_entry_t, ptr %128, i32 0, i32 2
  %130 = load ptr, ptr %129, align 8, !tbaa !33
  %131 = call i32 @H5SL_close(ptr noundef %130)
  %132 = icmp slt i32 %131, 0
  br i1 %132, label %133, label %152

133:                                              ; preds = %127
  br label %134

134:                                              ; preds = %133
  br label %135

135:                                              ; preds = %134
  br label %136

136:                                              ; preds = %135
  %137 = load i64, ptr @H5E_CACHE_g, align 8, !tbaa !13
  %138 = load i64, ptr @H5E_CLOSEERROR_g, align 8, !tbaa !13
  %139 = call i32 (ptr, ptr, i32, i64, i64, ptr, ...) @H5E_printf_stack(ptr noundef @.str.1, ptr noundef @__func__.H5AC_proxy_entry_remove_parent, i32 noundef 210, i64 noundef %137, i64 noundef %138, ptr noundef @.str.9)
  br label %140

140:                                              ; preds = %136
  br label %141

141:                                              ; preds = %140
  store i8 1, ptr %8, align 1, !tbaa !9
  %142 = load i8, ptr %8, align 1, !tbaa !9, !range !11, !noundef !12
  %143 = trunc i8 %142 to i1
  %144 = zext i1 %143 to i8
  store i8 %144, ptr %8, align 1, !tbaa !9
  br label %145

145:                                              ; preds = %141
  br label %146

146:                                              ; preds = %145
  br label %147

147:                                              ; preds = %146
  store i32 -1, ptr %7, align 4, !tbaa !17
  br label %186

148:                                              ; No predecessors!
  br label %149

149:                                              ; preds = %148
  br label %150

150:                                              ; preds = %149
  br label %151

151:                                              ; preds = %150
  br label %152

152:                                              ; preds = %151, %127
  %153 = load ptr, ptr %3, align 8, !tbaa !19
  %154 = getelementptr inbounds nuw %struct.H5AC_proxy_entry_t, ptr %153, i32 0, i32 2
  store ptr null, ptr %154, align 8, !tbaa !33
  br label %155

155:                                              ; preds = %152, %121
  %156 = load ptr, ptr %3, align 8, !tbaa !19
  %157 = getelementptr inbounds nuw %struct.H5AC_proxy_entry_t, ptr %156, i32 0, i32 3
  %158 = load i64, ptr %157, align 8, !tbaa !34
  %159 = icmp ugt i64 %158, 0
  br i1 %159, label %160, label %185

160:                                              ; preds = %155
  %161 = load ptr, ptr %5, align 8, !tbaa !32
  %162 = load ptr, ptr %3, align 8, !tbaa !19
  %163 = call i32 @H5AC_destroy_flush_dependency(ptr noundef %161, ptr noundef %162)
  %164 = icmp slt i32 %163, 0
  br i1 %164, label %165, label %184

165:                                              ; preds = %160
  br label %166

166:                                              ; preds = %165
  br label %167

167:                                              ; preds = %166
  br label %168

168:                                              ; preds = %167
  %169 = load i64, ptr @H5E_CACHE_g, align 8, !tbaa !13
  %170 = load i64, ptr @H5E_CANTUNDEPEND_g, align 8, !tbaa !13
  %171 = call i32 (ptr, ptr, i32, i64, i64, ptr, ...) @H5E_printf_stack(ptr noundef @.str.1, ptr noundef @__func__.H5AC_proxy_entry_remove_parent, i32 noundef 218, i64 noundef %169, i64 noundef %170, ptr noundef @.str.10)
  br label %172

172:                                              ; preds = %168
  br label %173

173:                                              ; preds = %172
  store i8 1, ptr %8, align 1, !tbaa !9
  %174 = load i8, ptr %8, align 1, !tbaa !9, !range !11, !noundef !12
  %175 = trunc i8 %174 to i1
  %176 = zext i1 %175 to i8
  store i8 %176, ptr %8, align 1, !tbaa !9
  br label %177

177:                                              ; preds = %173
  br label %178

178:                                              ; preds = %177
  br label %179

179:                                              ; preds = %178
  store i32 -1, ptr %7, align 4, !tbaa !17
  br label %186

180:                                              ; No predecessors!
  br label %181

181:                                              ; preds = %180
  br label %182

182:                                              ; preds = %181
  br label %183

183:                                              ; preds = %182
  br label %184

184:                                              ; preds = %183, %160
  br label %185

185:                                              ; preds = %184, %155
  br label %186

186:                                              ; preds = %185, %179, %147, %116, %84, %41
  br label %187

187:                                              ; preds = %186, %54
  %188 = load i32, ptr %7, align 4, !tbaa !17
  call void @llvm.lifetime.end.p0(i64 1, ptr %8) #4
  call void @llvm.lifetime.end.p0(i64 4, ptr %7) #4
  call void @llvm.lifetime.end.p0(i64 8, ptr %6) #4
  call void @llvm.lifetime.end.p0(i64 8, ptr %5) #4
  ret i32 %188
}