; Function Attrs: nounwind uwtable
define range(i32 -1, 1) i32 @H5AC_proxy_entry_remove_parent(ptr noundef %0, ptr noundef %1) local_unnamed_addr #1 {
  %3 = load i8, ptr @H5AC_init_g, align 1, !tbaa !3, !range !7, !noundef !8
  %4 = trunc nuw i8 %3 to i1
  %5 = load i8, ptr @H5_libterm_g, align 1, !range !7
  %6 = trunc nuw i8 %5 to i1
  %7 = select i1 %4, i1 true, i1 %6
  br i1 %7, label %15, label %8, !prof !9

8:                                                ; preds = %2
  store i8 1, ptr @H5AC_init_g, align 1, !tbaa !3
  %9 = tail call i32 @H5AC__init_package() #3
  %10 = icmp slt i32 %9, 0
  br i1 %10, label %11, label %._crit_edge

._crit_edge:                                      ; preds = %8
  %.pre = load i8, ptr @H5AC_init_g, align 1, !tbaa !3, !range !7
  %.pre20 = load i8, ptr @H5_libterm_g, align 1, !range !7
  %.pre21 = trunc nuw i8 %.pre to i1
  %.pre22 = trunc nuw i8 %.pre20 to i1
  br label %15

11:                                               ; preds = %8
  store i8 0, ptr @H5AC_init_g, align 1, !tbaa !3
  %12 = load i64, ptr @H5E_FUNC_g, align 8, !tbaa !10
  %13 = load i64, ptr @H5E_CANTINIT_g, align 8, !tbaa !10
  %14 = tail call i32 (ptr, ptr, i32, i64, i64, ptr, ...) @H5E_printf_stack(ptr noundef nonnull @.str.1, ptr noundef nonnull @__func__.H5AC_proxy_entry_remove_parent, i32 noundef 191, i64 noundef %12, i64 noundef %13, ptr noundef nonnull @.str.2) #3
  br label %61

15:                                               ; preds = %._crit_edge, %2
  %.pre-phi23 = phi i1 [ %.pre22, %._crit_edge ], [ %6, %2 ]
  %.pre-phi = phi i1 [ %.pre21, %._crit_edge ], [ %4, %2 ]
  %16 = xor i1 %.pre-phi23, true
  %17 = select i1 %.pre-phi, i1 true, i1 %16
  br i1 %17, label %18, label %61, !prof !9

18:                                               ; preds = %15
  %19 = getelementptr inbounds nuw i8, ptr %0, i64 256
  %20 = load ptr, ptr %19, align 8, !tbaa !26
  %21 = getelementptr inbounds nuw i8, ptr %1, i64 8
  %22 = tail call ptr @H5SL_remove(ptr noundef %20, ptr noundef nonnull %21) #3
  %23 = icmp eq ptr %22, null
  br i1 %23, label %24, label %28

24:                                               ; preds = %18
  %25 = load i64, ptr @H5E_CACHE_g, align 8, !tbaa !10
  %26 = load i64, ptr @H5E_CANTREMOVE_g, align 8, !tbaa !10
  %27 = tail call i32 (ptr, ptr, i32, i64, i64, ptr, ...) @H5E_printf_stack(ptr noundef nonnull @.str.1, ptr noundef nonnull @__func__.H5AC_proxy_entry_remove_parent, i32 noundef 200, i64 noundef %25, i64 noundef %26, ptr noundef nonnull @.str.7) #3
  br label %61

28:                                               ; preds = %18
  %29 = getelementptr inbounds nuw i8, ptr %22, i64 8
  %30 = load i64, ptr %29, align 8, !tbaa !28
  %.not = icmp eq i64 %30, -1
  br i1 %.not, label %34, label %31

31:                                               ; preds = %28
  %32 = load i64, ptr %21, align 8, !tbaa !28
  %33 = icmp eq i64 %30, %32
  br i1 %33, label %38, label %34

34:                                               ; preds = %28, %31
  %35 = load i64, ptr @H5E_CACHE_g, align 8, !tbaa !10
  %36 = load i64, ptr @H5E_BADVALUE_g, align 8, !tbaa !10
  %37 = tail call i32 (ptr, ptr, i32, i64, i64, ptr, ...) @H5E_printf_stack(ptr noundef nonnull @.str.1, ptr noundef nonnull @__func__.H5AC_proxy_entry_remove_parent, i32 noundef 202, i64 noundef %35, i64 noundef %36, ptr noundef nonnull @.str.8) #3
  br label %61

38:                                               ; preds = %31
  %39 = load ptr, ptr %19, align 8, !tbaa !26
  %40 = tail call i64 @H5SL_count(ptr noundef %39) #3
  %41 = icmp eq i64 %40, 0
  br i1 %41, label %42, label %51

42:                                               ; preds = %38
  %43 = load ptr, ptr %19, align 8, !tbaa !26
  %44 = tail call i32 @H5SL_close(ptr noundef %43) #3
  %45 = icmp slt i32 %44, 0
  br i1 %45, label %46, label %50

46:                                               ; preds = %42
  %47 = load i64, ptr @H5E_CACHE_g, align 8, !tbaa !10
  %48 = load i64, ptr @H5E_CLOSEERROR_g, align 8, !tbaa !10
  %49 = tail call i32 (ptr, ptr, i32, i64, i64, ptr, ...) @H5E_printf_stack(ptr noundef nonnull @.str.1, ptr noundef nonnull @__func__.H5AC_proxy_entry_remove_parent, i32 noundef 210, i64 noundef %47, i64 noundef %48, ptr noundef nonnull @.str.9) #3
  br label %61

50:                                               ; preds = %42
  store ptr null, ptr %19, align 8, !tbaa !26
  br label %51

51:                                               ; preds = %50, %38
  %52 = getelementptr inbounds nuw i8, ptr %0, i64 264
  %53 = load i64, ptr %52, align 8, !tbaa !27
  %.not19 = icmp eq i64 %53, 0
  br i1 %.not19, label %61, label %54

54:                                               ; preds = %51
  %55 = tail call i32 @H5AC_destroy_flush_dependency(ptr noundef nonnull %1, ptr noundef nonnull %0) #3
  %56 = icmp slt i32 %55, 0
  br i1 %56, label %57, label %61

57:                                               ; preds = %54
  %58 = load i64, ptr @H5E_CACHE_g, align 8, !tbaa !10
  %59 = load i64, ptr @H5E_CANTUNDEPEND_g, align 8, !tbaa !10
  %60 = tail call i32 (ptr, ptr, i32, i64, i64, ptr, ...) @H5E_printf_stack(ptr noundef nonnull @.str.1, ptr noundef nonnull @__func__.H5AC_proxy_entry_remove_parent, i32 noundef 218, i64 noundef %58, i64 noundef %59, ptr noundef nonnull @.str.10) #3
  br label %61

61:                                               ; preds = %11, %24, %34, %46, %57, %54, %51, %15
  %.0 = phi i32 [ -1, %11 ], [ -1, %24 ], [ -1, %46 ], [ -1, %57 ], [ 0, %54 ], [ 0, %51 ], [ -1, %34 ], [ 0, %15 ]
  ret i32 %.0
}